target datalayout = "e-m:e-p270:32:32-p271:32:32-p272:64:64-i64:64-i128:128-f80:128-n8:16:32:64-S128"
target triple = "x86_64-pc-linux-gnu"

%struct.expert_field = type { i32, i32 }
%struct._packet_info = type { ptr, ptr, i32, i32, %struct.nstime_t, %struct.nstime_t, %struct.nstime_t, i8, ptr, ptr, ptr, ptr, %struct._address, %struct._address, %struct._address, %struct._address, %struct._address, %struct._address, i32, ptr, i8, [3 x i8], %struct.anon, i32, i32, i32, i32, ptr, i8, ptr, ptr, i16, i16, i32, i32, i16, i32, i32, ptr, ptr, ptr, i8, i8, i16, i16, i16, i32, i16, i16, ptr, ptr, ptr, ptr, ptr, i32, i32 }
%struct.nstime_t = type { i64, i32 }
%struct._address = type { i32, i32, ptr, ptr }
%struct.anon = type { i8, [3 x i8] }
%struct._proto_node = type { ptr, ptr, ptr, ptr, ptr, ptr, ptr }
%struct.field_info = type { ptr, i32, i32, i32, i32, i32, i32, ptr, ptr, ptr, i32, i32 }

@hf_mcpe_string_length = internal global i32 0, align 4
@hf_mcpe_UTF8_string = internal global i32 0, align 4
@hf_mcpe_byte_string = internal global i32 0, align 4
@hf_mcpe_protocol_version = internal global i32 0, align 4
@hf_mcpe_login_data_length = internal global i32 0, align 4
@hf_mcpe_login_data = internal global i32 0, align 4
@hf_mcpe_login = internal global i32 0, align 4
@.str.16 = private unnamed_addr constant [29 x i8] c"MCPE Decompressed login data\00", align 1
@hf_mcpe_chain_JSON = internal global i32 0, align 4
@hf_mcpe_client_data_JWT = internal global i32 0, align 4
@ett_mcpe_login = internal global i32 0, align 4
@ett_mcpe_string = internal global i32 0, align 4
@ei_mcpe_decompression_failed = internal global %struct.expert_field zeroinitializer, align 4
@.str.60 = private unnamed_addr constant [13 x i8] c" (%u octets)\00", align 1

; Function Attrs: null_pointer_is_valid sspstrong uwtable
define internal void @mcpe_dissect_string(ptr noundef %0, ptr noundef %1, i32 noundef %2, ptr noundef %3, ptr noundef %4, i32 noundef %5) #0 {
  %7 = alloca ptr, align 8
  %8 = alloca ptr, align 8
  %9 = alloca i32, align 4
  %10 = alloca ptr, align 8
  %11 = alloca ptr, align 8
  %12 = alloca i32, align 4
  %13 = alloca ptr, align 8
  %14 = alloca ptr, align 8
  %15 = alloca i32, align 4
  %16 = alloca i32, align 4
  %17 = alloca ptr, align 8
  %18 = alloca ptr, align 8
  store ptr %0, ptr %7, align 8
  store ptr %1, ptr %8, align 8
  store i32 %2, ptr %9, align 4
  store ptr %3, ptr %10, align 8
  store ptr %4, ptr %11, align 8
  store i32 %5, ptr %12, align 4
  call void @llvm.lifetime.start.p0(i64 8, ptr %13) #7
  call void @llvm.lifetime.start.p0(i64 8, ptr %14) #7
  call void @llvm.lifetime.start.p0(i64 4, ptr %15) #7
  call void @llvm.lifetime.start.p0(i64 4, ptr %16) #7
  %19 = load i32, ptr %12, align 4
  %20 = and i32 %19, -2147483648
  %21 = icmp ne i32 %20, 0
  br i1 %21, label %22, label %27

22:                                               ; preds = %6
  %23 = load ptr, ptr %10, align 8
  %24 = load ptr, ptr %11, align 8
  %25 = load i32, ptr %24, align 4
  %26 = call i32 @tvb_get_letohl(ptr noundef %23, i32 noundef %25)
  store i32 %26, ptr %15, align 4
  store i32 4, ptr %16, align 4
  br label %33

27:                                               ; preds = %6
  %28 = load ptr, ptr %10, align 8
  %29 = load ptr, ptr %11, align 8
  %30 = load i32, ptr %29, align 4
  %31 = call zeroext i16 @tvb_get_ntohs(ptr noundef %28, i32 noundef %30)
  %32 = zext i16 %31 to i32
  store i32 %32, ptr %15, align 4
  store i32 2, ptr %16, align 4
  br label %33

33:                                               ; preds = %27, %22
  %34 = load i32, ptr %12, align 4
  %35 = and i32 %34, 2
  %36 = icmp ne i32 %35, 0
  br i1 %36, label %37, label %84

37:                                               ; preds = %33
  call void @llvm.lifetime.start.p0(i64 8, ptr %17) #7
  %38 = load ptr, ptr %7, align 8
  %39 = getelementptr inbounds nuw %struct._packet_info, ptr %38, i32 0, i32 51
  %40 = load ptr, ptr %39, align 8
  %41 = load ptr, ptr %10, align 8
  %42 = load ptr, ptr %11, align 8
  %43 = load i32, ptr %42, align 4
  %44 = load i32, ptr %16, align 4
  %45 = add i32 %43, %44
  %46 = load i32, ptr %15, align 4
  %47 = call ptr @tvb_get_string_enc(ptr noundef %40, ptr noundef %41, i32 noundef %45, i32 noundef %46, i32 noundef 2)
  store ptr %47, ptr %17, align 8
  %48 = load ptr, ptr %8, align 8
  %49 = load i32, ptr %9, align 4
  %50 = load ptr, ptr %10, align 8
  %51 = load ptr, ptr %11, align 8
  %52 = load i32, ptr %51, align 4
  %53 = load i32, ptr %15, align 4
  %54 = load i32, ptr %16, align 4
  %55 = add i32 %53, %54
  %56 = load ptr, ptr %17, align 8
  %57 = call ptr @proto_tree_add_string(ptr noundef %48, i32 noundef %49, ptr noundef %50, i32 noundef %52, i32 noundef %55, ptr noundef %56)
  store ptr %57, ptr %13, align 8
  %58 = load ptr, ptr %13, align 8
  %59 = load i32, ptr @ett_mcpe_string, align 4
  %60 = call ptr @proto_item_add_subtree(ptr noundef %58, i32 noundef %59)
  store ptr %60, ptr %14, align 8
  %61 = load ptr, ptr %14, align 8
  %62 = load i32, ptr @hf_mcpe_string_length, align 4
  %63 = load ptr, ptr %10, align 8
  %64 = load ptr, ptr %11, align 8
  %65 = load i32, ptr %64, align 4
  %66 = load i32, ptr %16, align 4
  %67 = load i32, ptr %12, align 4
  %68 = call ptr @proto_tree_add_item(ptr noundef %61, i32 noundef %62, ptr noundef %63, i32 noundef %65, i32 noundef %66, i32 noundef %67)
  %69 = load i32, ptr %16, align 4
  %70 = load ptr, ptr %11, align 8
  %71 = load i32, ptr %70, align 4
  %72 = add i32 %71, %69
  store i32 %72, ptr %70, align 4
  %73 = load ptr, ptr %14, align 8
  %74 = load i32, ptr @hf_mcpe_UTF8_string, align 4
  %75 = load ptr, ptr %10, align 8
  %76 = load ptr, ptr %11, align 8
  %77 = load i32, ptr %76, align 4
  %78 = load i32, ptr %15, align 4
  %79 = call ptr @proto_tree_add_item(ptr noundef %73, i32 noundef %74, ptr noundef %75, i32 noundef %77, i32 noundef %78, i32 noundef 2)
  %80 = load i32, ptr %15, align 4
  %81 = load ptr, ptr %11, align 8
  %82 = load i32, ptr %81, align 4
  %83 = add i32 %82, %80
  store i32 %83, ptr %81, align 4
  call void @llvm.lifetime.end.p0(i64 8, ptr %17) #7
  br label %133

84:                                               ; preds = %33
  call void @llvm.lifetime.start.p0(i64 8, ptr %18) #7
  %85 = load ptr, ptr %7, align 8
  %86 = getelementptr inbounds nuw %struct._packet_info, ptr %85, i32 0, i32 51
  %87 = load ptr, ptr %86, align 8
  %88 = load ptr, ptr %10, align 8
  %89 = load ptr, ptr %11, align 8
  %90 = load i32, ptr %89, align 4
  %91 = load i32, ptr %16, align 4
  %92 = add i32 %90, %91
  %93 = load i32, ptr %15, align 4
  %94 = zext i32 %93 to i64
  %95 = call ptr @tvb_memdup(ptr noundef %87, ptr noundef %88, i32 noundef %92, i64 noundef %94)
  store ptr %95, ptr %18, align 8
  %96 = load ptr, ptr %8, align 8
  %97 = load i32, ptr %9, align 4
  %98 = load ptr, ptr %10, align 8
  %99 = load ptr, ptr %11, align 8
  %100 = load i32, ptr %99, align 4
  %101 = load i32, ptr %15, align 4
  %102 = load i32, ptr %16, align 4
  %103 = add i32 %101, %102
  %104 = load ptr, ptr %18, align 8
  %105 = load i32, ptr %15, align 4
  %106 = call ptr @proto_tree_add_bytes_with_length(ptr noundef %96, i32 noundef %97, ptr noundef %98, i32 noundef %100, i32 noundef %103, ptr noundef %104, i32 noundef %105)
  store ptr %106, ptr %13, align 8
  %107 = load ptr, ptr %13, align 8
  %108 = load i32, ptr @ett_mcpe_string, align 4
  %109 = call ptr @proto_item_add_subtree(ptr noundef %107, i32 noundef %108)
  store ptr %109, ptr %14, align 8
  %110 = load ptr, ptr %14, align 8
  %111 = load i32, ptr @hf_mcpe_string_length, align 4
  %112 = load ptr, ptr %10, align 8
  %113 = load ptr, ptr %11, align 8
  %114 = load i32, ptr %113, align 4
  %115 = load i32, ptr %16, align 4
  %116 = load i32, ptr %12, align 4
  %117 = call ptr @proto_tree_add_item(ptr noundef %110, i32 noundef %111, ptr noundef %112, i32 noundef %114, i32 noundef %115, i32 noundef %116)
  %118 = load i32, ptr %16, align 4
  %119 = load ptr, ptr %11, align 8
  %120 = load i32, ptr %119, align 4
  %121 = add i32 %120, %118
  store i32 %121, ptr %119, align 4
  %122 = load ptr, ptr %14, align 8
  %123 = load i32, ptr @hf_mcpe_byte_string, align 4
  %124 = load ptr, ptr %10, align 8
  %125 = load ptr, ptr %11, align 8
  %126 = load i32, ptr %125, align 4
  %127 = load i32, ptr %15, align 4
  %128 = call ptr @proto_tree_add_item(ptr noundef %122, i32 noundef %123, ptr noundef %124, i32 noundef %126, i32 noundef %127, i32 noundef 0)
  %129 = load i32, ptr %15, align 4
  %130 = load ptr, ptr %11, align 8
  %131 = load i32, ptr %130, align 4
  %132 = add i32 %131, %129
  store i32 %132, ptr %130, align 4
  call void @llvm.lifetime.end.p0(i64 8, ptr %18) #7
  br label %133

133:                                              ; preds = %84, %37
  call void @llvm.lifetime.end.p0(i64 4, ptr %16) #7
  call void @llvm.lifetime.end.p0(i64 4, ptr %15) #7
  call void @llvm.lifetime.end.p0(i64 8, ptr %14) #7
  call void @llvm.lifetime.end.p0(i64 8, ptr %13) #7
  ret void
}

; Function Attrs: inlinehint nounwind null_pointer_is_valid sspstrong uwtable
define internal void @proto_item_set_generated(ptr noundef %0) #5 {
  %2 = alloca ptr, align 8
  store ptr %0, ptr %2, align 8
  %3 = load ptr, ptr %2, align 8
  %4 = icmp ne ptr %3, null
  br i1 %4, label %5, label %24

5:                                                ; preds = %1
  br label %6

6:                                                ; preds = %5
  %7 = load ptr, ptr %2, align 8
  %8 = getelementptr inbounds nuw %struct._proto_node, ptr %7, i32 0, i32 5
  %9 = load ptr, ptr %8, align 8
  %10 = icmp ne ptr %9, null
  br i1 %10, label %11, label %22

11:                                               ; preds = %6
  %12 = load ptr, ptr %2, align 8
  %13 = getelementptr inbounds nuw %struct._proto_node, ptr %12, i32 0, i32 5
  %14 = load ptr, ptr %13, align 8
  %15 = getelementptr inbounds nuw %struct.field_info, ptr %14, i32 0, i32 6
  %16 = load i32, ptr %15, align 4
  %17 = or i32 %16, 2
  %18 = load ptr, ptr %2, align 8
  %19 = getelementptr inbounds nuw %struct._proto_node, ptr %18, i32 0, i32 5
  %20 = load ptr, ptr %19, align 8
  %21 = getelementptr inbounds nuw %struct.field_info, ptr %20, i32 0, i32 6
  store i32 %17, ptr %21, align 4
  br label %22

22:                                               ; preds = %11, %6
  br label %23

23:                                               ; preds = %22
  br label %24

24:                                               ; preds = %23, %1
  ret void
}

; Function Attrs: null_pointer_is_valid sspstrong uwtable
define internal i32 @mcpe_dissect_login(ptr noundef %0, ptr noundef %1, ptr noundef %2, ptr noundef %3) #0 {
  %5 = alloca ptr, align 8
  %6 = alloca ptr, align 8
  %7 = alloca ptr, align 8
  %8 = alloca ptr, align 8
  %9 = alloca i32, align 4
  %10 = alloca i32, align 4
  %11 = alloca i32, align 4
  %12 = alloca ptr, align 8
  %13 = alloca ptr, align 8
  %14 = alloca i32, align 4
  %15 = alloca ptr, align 8
  store ptr %0, ptr %5, align 8
  store ptr %1, ptr %6, align 8
  store ptr %2, ptr %7, align 8
  store ptr %3, ptr %8, align 8
  %16 = load ptr, ptr %7, align 8
  %17 = icmp ne ptr %16, null
  br i1 %17, label %18, label %82

18:                                               ; preds = %4
  call void @llvm.lifetime.start.p0(i64 4, ptr %9) #7
  call void @llvm.lifetime.start.p0(i64 4, ptr %10) #7
  store i32 1, ptr %10, align 4
  call void @llvm.lifetime.start.p0(i64 4, ptr %11) #7
  call void @llvm.lifetime.start.p0(i64 8, ptr %12) #7
  call void @llvm.lifetime.start.p0(i64 8, ptr %13) #7
  store i32 4, ptr %9, align 4
  %19 = load ptr, ptr %7, align 8
  %20 = load i32, ptr @hf_mcpe_protocol_version, align 4
  %21 = load ptr, ptr %5, align 8
  %22 = load i32, ptr %10, align 4
  %23 = load i32, ptr %9, align 4
  %24 = call ptr @proto_tree_add_item(ptr noundef %19, i32 noundef %20, ptr noundef %21, i32 noundef %22, i32 noundef %23, i32 noundef 0)
  %25 = load i32, ptr %9, align 4
  %26 = load i32, ptr %10, align 4
  %27 = add i32 %26, %25
  store i32 %27, ptr %10, align 4
  store i32 4, ptr %9, align 4
  %28 = load ptr, ptr %7, align 8
  %29 = load i32, ptr @hf_mcpe_login_data_length, align 4
  %30 = load ptr, ptr %5, align 8
  %31 = load i32, ptr %10, align 4
  %32 = load i32, ptr %9, align 4
  %33 = call ptr @proto_tree_add_item_ret_uint(ptr noundef %28, i32 noundef %29, ptr noundef %30, i32 noundef %31, i32 noundef %32, i32 noundef 0, ptr noundef %11)
  %34 = load i32, ptr %9, align 4
  %35 = load i32, ptr %10, align 4
  %36 = add i32 %35, %34
  store i32 %36, ptr %10, align 4
  %37 = load i32, ptr %11, align 4
  store i32 %37, ptr %9, align 4
  %38 = load ptr, ptr %7, align 8
  %39 = load i32, ptr @hf_mcpe_login_data, align 4
  %40 = load ptr, ptr %5, align 8
  %41 = load i32, ptr %10, align 4
  %42 = load i32, ptr %9, align 4
  %43 = call ptr @proto_tree_add_item(ptr noundef %38, i32 noundef %39, ptr noundef %40, i32 noundef %41, i32 noundef %42, i32 noundef 0)
  store ptr %43, ptr %12, align 8
  %44 = load ptr, ptr %5, align 8
  %45 = load ptr, ptr %5, align 8
  %46 = load i32, ptr %10, align 4
  %47 = load i32, ptr %11, align 4
  %48 = call ptr @tvb_child_uncompress_zlib(ptr noundef %44, ptr noundef %45, i32 noundef %46, i32 noundef %47)
  store ptr %48, ptr %13, align 8
  %49 = load ptr, ptr %13, align 8
  %50 = icmp ne ptr %49, null
  br i1 %50, label %51, label %77

51:                                               ; preds = %18
  call void @llvm.lifetime.start.p0(i64 4, ptr %14) #7
  call void @llvm.lifetime.start.p0(i64 8, ptr %15) #7
  %52 = load ptr, ptr %6, align 8
  %53 = load ptr, ptr %13, align 8
  call void @add_new_data_source(ptr noundef %52, ptr noundef %53, ptr noundef @.str.16)
  %54 = load ptr, ptr %13, align 8
  %55 = call i32 @tvb_captured_length(ptr noundef %54)
  store i32 %55, ptr %14, align 4
  store i32 0, ptr %10, align 4
  %56 = load i32, ptr %14, align 4
  store i32 %56, ptr %9, align 4
  %57 = load ptr, ptr %7, align 8
  %58 = load i32, ptr @hf_mcpe_login, align 4
  %59 = load ptr, ptr %13, align 8
  %60 = load i32, ptr %10, align 4
  %61 = load i32, ptr %9, align 4
  %62 = call ptr @proto_tree_add_item(ptr noundef %57, i32 noundef %58, ptr noundef %59, i32 noundef %60, i32 noundef %61, i32 noundef 0)
  store ptr %62, ptr %12, align 8
  %63 = load ptr, ptr %12, align 8
  %64 = load i32, ptr @ett_mcpe_login, align 4
  %65 = call ptr @proto_item_add_subtree(ptr noundef %63, i32 noundef %64)
  store ptr %65, ptr %15, align 8
  %66 = load ptr, ptr %12, align 8
  %67 = load i32, ptr %14, align 4
  call void (ptr, ptr, ...) @proto_item_append_text(ptr noundef %66, ptr noundef @.str.60, i32 noundef %67)
  %68 = load ptr, ptr %12, align 8
  call void @proto_item_set_generated(ptr noundef %68)
  %69 = load ptr, ptr %6, align 8
  %70 = load ptr, ptr %15, align 8
  %71 = load i32, ptr @hf_mcpe_chain_JSON, align 4
  %72 = load ptr, ptr %13, align 8
  call void @mcpe_dissect_string(ptr noundef %69, ptr noundef %70, i32 noundef %71, ptr noundef %72, ptr noundef %10, i32 noundef -2147483646)
  %73 = load ptr, ptr %6, align 8
  %74 = load ptr, ptr %15, align 8
  %75 = load i32, ptr @hf_mcpe_client_data_JWT, align 4
  %76 = load ptr, ptr %13, align 8
  call void @mcpe_dissect_string(ptr noundef %73, ptr noundef %74, i32 noundef %75, ptr noundef %76, ptr noundef %10, i32 noundef -2147483646)
  call void @llvm.lifetime.end.p0(i64 8, ptr %15) #7
  call void @llvm.lifetime.end.p0(i64 4, ptr %14) #7
  br label %81

77:                                               ; preds = %18
  %78 = load ptr, ptr %6, align 8
  %79 = load ptr, ptr %12, align 8
  %80 = call ptr @expert_add_info(ptr noundef %78, ptr noundef %79, ptr noundef @ei_mcpe_decompression_failed)
  br label %81

81:                                               ; preds = %77, %51
  call void @llvm.lifetime.end.p0(i64 8, ptr %13) #7
  call void @llvm.lifetime.end.p0(i64 8, ptr %12) #7
  call void @llvm.lifetime.end.p0(i64 4, ptr %11) #7
  call void @llvm.lifetime.end.p0(i64 4, ptr %10) #7
  call void @llvm.lifetime.end.p0(i64 4, ptr %9) #7
  br label %82

82:                                               ; preds = %81, %4
  %83 = load ptr, ptr %5, align 8
  %84 = call i32 @tvb_reported_length(ptr noundef %83)
  ret i32 %84
}