; Function Attrs: null_pointer_is_valid sspstrong uwtable
define internal i32 @mcpe_dissect_login(ptr noundef %0, ptr noundef %1, ptr noundef %2, ptr readnone captures(none) %3) #0 {
  %5 = alloca i32, align 4
  %.not = icmp eq ptr %2, null
  br i1 %.not, label %58, label %6

6:                                                ; preds = %4
  call void @llvm.lifetime.start.p0(i64 4, ptr nonnull %5) #6
  %7 = load i32, ptr @hf_mcpe_protocol_version, align 4
  %8 = tail call ptr @proto_tree_add_item(ptr noundef nonnull %2, i32 noundef %7, ptr noundef %0, i32 noundef 1, i32 noundef 4, i32 noundef 0)
  %9 = load i32, ptr @hf_mcpe_login_data_length, align 4
  %10 = call ptr @proto_tree_add_item_ret_uint(ptr noundef nonnull %2, i32 noundef %9, ptr noundef %0, i32 noundef 5, i32 noundef 4, i32 noundef 0, ptr noundef nonnull %5)
  %11 = load i32, ptr %5, align 4
  %12 = load i32, ptr @hf_mcpe_login_data, align 4
  %13 = call ptr @proto_tree_add_item(ptr noundef nonnull %2, i32 noundef %12, ptr noundef %0, i32 noundef 9, i32 noundef %11, i32 noundef 0)
  %14 = load i32, ptr %5, align 4
  %15 = call ptr @tvb_child_uncompress_zlib(ptr noundef %0, ptr noundef %0, i32 noundef 9, i32 noundef %14)
  %.not35 = icmp eq ptr %15, null
  br i1 %.not35, label %55, label %16

16:                                               ; preds = %6
  call void @add_new_data_source(ptr noundef %1, ptr noundef nonnull %15, ptr noundef nonnull @.str.16)
  %17 = call i32 @tvb_captured_length(ptr noundef nonnull %15)
  %18 = load i32, ptr @hf_mcpe_login, align 4
  %19 = call ptr @proto_tree_add_item(ptr noundef nonnull %2, i32 noundef %18, ptr noundef nonnull %15, i32 noundef 0, i32 noundef %17, i32 noundef 0)
  %20 = load i32, ptr @ett_mcpe_login, align 4
  %21 = call ptr @proto_item_add_subtree(ptr noundef %19, i32 noundef %20)
  call void (ptr, ptr, ...) @proto_item_append_text(ptr noundef %19, ptr noundef nonnull @.str.60, i32 noundef %17)
  %.not.i = icmp eq ptr %19, null
  br i1 %.not.i, label %proto_item_set_generated.exit, label %22

22:                                               ; preds = %16
  %23 = getelementptr inbounds nuw i8, ptr %19, i64 40
  %24 = load ptr, ptr %23, align 8
  %.not5.i = icmp eq ptr %24, null
  br i1 %.not5.i, label %proto_item_set_generated.exit, label %25

25:                                               ; preds = %22
  %26 = getelementptr inbounds nuw i8, ptr %24, i64 28
  %27 = load i32, ptr %26, align 4
  %28 = or i32 %27, 2
  store i32 %28, ptr %26, align 4
  br label %proto_item_set_generated.exit

proto_item_set_generated.exit:                    ; preds = %16, %22, %25
  %29 = load i32, ptr @hf_mcpe_chain_JSON, align 4
  %30 = call i32 @tvb_get_letohl(ptr noundef nonnull %15, i32 noundef 0)
  %31 = getelementptr inbounds nuw i8, ptr %1, i64 408
  %32 = load ptr, ptr %31, align 8
  %33 = call ptr @tvb_get_string_enc(ptr noundef %32, ptr noundef nonnull %15, i32 noundef 4, i32 noundef %30, i32 noundef 2)
  %34 = add i32 %30, 4
  %35 = call ptr @proto_tree_add_string(ptr noundef %21, i32 noundef %29, ptr noundef nonnull %15, i32 noundef 0, i32 noundef %34, ptr noundef %33)
  %36 = load i32, ptr @ett_mcpe_string, align 4
  %37 = call ptr @proto_item_add_subtree(ptr noundef %35, i32 noundef %36)
  %38 = load i32, ptr @hf_mcpe_string_length, align 4
  %39 = call ptr @proto_tree_add_item(ptr noundef %37, i32 noundef %38, ptr noundef nonnull %15, i32 noundef 0, i32 noundef 4, i32 noundef -2147483646)
  %40 = load i32, ptr @hf_mcpe_UTF8_string, align 4
  %41 = call ptr @proto_tree_add_item(ptr noundef %37, i32 noundef %40, ptr noundef nonnull %15, i32 noundef 4, i32 noundef %30, i32 noundef 2)
  %42 = load i32, ptr @hf_mcpe_client_data_JWT, align 4
  %43 = call i32 @tvb_get_letohl(ptr noundef nonnull %15, i32 noundef %34)
  %44 = load ptr, ptr %31, align 8
  %45 = add i32 %30, 8
  %46 = call ptr @tvb_get_string_enc(ptr noundef %44, ptr noundef nonnull %15, i32 noundef %45, i32 noundef %43, i32 noundef 2)
  %47 = add i32 %43, 4
  %48 = call ptr @proto_tree_add_string(ptr noundef %21, i32 noundef %42, ptr noundef nonnull %15, i32 noundef %34, i32 noundef %47, ptr noundef %46)
  %49 = load i32, ptr @ett_mcpe_string, align 4
  %50 = call ptr @proto_item_add_subtree(ptr noundef %48, i32 noundef %49)
  %51 = load i32, ptr @hf_mcpe_string_length, align 4
  %52 = call ptr @proto_tree_add_item(ptr noundef %50, i32 noundef %51, ptr noundef nonnull %15, i32 noundef %34, i32 noundef 4, i32 noundef -2147483646)
  %53 = load i32, ptr @hf_mcpe_UTF8_string, align 4
  %54 = call ptr @proto_tree_add_item(ptr noundef %50, i32 noundef %53, ptr noundef nonnull %15, i32 noundef %45, i32 noundef %43, i32 noundef 2)
  br label %57

55:                                               ; preds = %6
  %56 = call ptr @expert_add_info(ptr noundef %1, ptr noundef %13, ptr noundef nonnull @ei_mcpe_decompression_failed)
  br label %57

57:                                               ; preds = %55, %proto_item_set_generated.exit
  call void @llvm.lifetime.end.p0(i64 4, ptr nonnull %5) #6
  br label %58

58:                                               ; preds = %57, %4
  %59 = call i32 @tvb_reported_length(ptr noundef %0)
  ret i32 %59
}